target datalayout = "e-m:e-p270:32:32-p271:32:32-p272:64:64-i64:64-i128:128-f80:128-n8:16:32:64-S128"
target triple = "x86_64-pc-linux-gnu"

%struct._object = type { i64, ptr }
%"struct.nanobind::detail::nb_inst" = type { %struct._object, i32, i32 }
%"struct.std::pair.24" = type { i8, i8 }

; Function Attrs: noinline noreturn nounwind uwtable
define linkonce_odr hidden void @__clang_call_terminate(ptr noundef %0) #9 comdat {
  %2 = call ptr @__cxa_begin_catch(ptr %0) #20
  call void @_ZSt9terminatev() #22
  unreachable
}

; Function Attrs: mustprogress nounwind uwtable
define linkonce_odr void @_ZNSt4pairIbbEC2IbbTnNSt9enable_ifIXaaclsr5_PCCPE22_MoveConstructiblePairIT_T0_EEclsr5_PCCPE30_ImplicitlyMoveConvertiblePairIS3_S4_EEEbE4typeELb1EEEOS3_OS4_(ptr noundef nonnull align 1 dereferenceable(2) %0, ptr noundef nonnull align 1 dereferenceable(1) %1, ptr noundef nonnull align 1 dereferenceable(1) %2) unnamed_addr #6 comdat align 2 {
  %4 = alloca ptr, align 8
  %5 = alloca ptr, align 8
  %6 = alloca ptr, align 8
  store ptr %0, ptr %4, align 8
  store ptr %1, ptr %5, align 8
  store ptr %2, ptr %6, align 8
  %7 = load ptr, ptr %4, align 8
  %8 = getelementptr inbounds nuw %"struct.std::pair.24", ptr %7, i32 0, i32 0
  %9 = load ptr, ptr %5, align 8
  %10 = load i8, ptr %9, align 1, !range !3, !noundef !4
  %11 = trunc i8 %10 to i1
  %12 = zext i1 %11 to i8
  store i8 %12, ptr %8, align 1
  %13 = getelementptr inbounds nuw %"struct.std::pair.24", ptr %7, i32 0, i32 1
  %14 = load ptr, ptr %6, align 8
  %15 = load i8, ptr %14, align 1, !range !3, !noundef !4
  %16 = trunc i8 %15 to i1
  %17 = zext i1 %16 to i8
  store i8 %17, ptr %13, align 1
  ret void
}

; Function Attrs: mustprogress nounwind uwtable
define i16 @_ZN8nanobind6detail13nb_inst_stateEP7_object(ptr noundef %0) #6 personality ptr @__gxx_personality_v0 {
  %2 = alloca %"struct.std::pair.24", align 1
  %3 = alloca ptr, align 8
  %4 = alloca ptr, align 8
  %5 = alloca i8, align 1
  %6 = alloca i8, align 1
  store ptr %0, ptr %3, align 8
  call void @llvm.lifetime.start.p0(i64 8, ptr %4) #20
  %7 = load ptr, ptr %3, align 8
  store ptr %7, ptr %4, align 8
  call void @llvm.lifetime.start.p0(i64 1, ptr %5) #20
  %8 = load ptr, ptr %4, align 8
  %9 = getelementptr inbounds nuw %"struct.nanobind::detail::nb_inst", ptr %8, i32 0, i32 2
  %10 = load i32, ptr %9, align 4
  %11 = and i32 %10, 3
  %12 = icmp eq i32 %11, 2
  %13 = zext i1 %12 to i8
  store i8 %13, ptr %5, align 1
  call void @llvm.lifetime.start.p0(i64 1, ptr %6) #20
  %14 = load ptr, ptr %4, align 8
  %15 = getelementptr inbounds nuw %"struct.nanobind::detail::nb_inst", ptr %14, i32 0, i32 2
  %16 = load i32, ptr %15, align 4
  %17 = lshr i32 %16, 4
  %18 = and i32 %17, 1
  %19 = icmp ne i32 %18, 0
  %20 = zext i1 %19 to i8
  store i8 %20, ptr %6, align 1
  invoke void @_ZNSt4pairIbbEC2IbbTnNSt9enable_ifIXaaclsr5_PCCPE22_MoveConstructiblePairIT_T0_EEclsr5_PCCPE30_ImplicitlyMoveConvertiblePairIS3_S4_EEEbE4typeELb1EEEOS3_OS4_(ptr noundef nonnull align 1 dereferenceable(2) %2, ptr noundef nonnull align 1 dereferenceable(1) %5, ptr noundef nonnull align 1 dereferenceable(1) %6)
          to label %21 unwind label %23

21:                                               ; preds = %1
  call void @llvm.lifetime.end.p0(i64 1, ptr %6) #20
  call void @llvm.lifetime.end.p0(i64 1, ptr %5) #20
  call void @llvm.lifetime.end.p0(i64 8, ptr %4) #20
  %22 = load i16, ptr %2, align 1
  ret i16 %22

23:                                               ; preds = %1
  %24 = landingpad { ptr, i32 }
          catch ptr null
  %25 = extractvalue { ptr, i32 } %24, 0
  call void @__clang_call_terminate(ptr %25) #22
  unreachable
}