; Function Attrs: mustprogress nofree norecurse nosync nounwind willreturn memory(argmem: read) uwtable
define range(i16 0, 258) i16 @_ZN8nanobind6detail13nb_inst_stateEP7_object(ptr noundef readonly captures(none) %0) local_unnamed_addr #17 personality ptr @__gxx_personality_v0 {
  %2 = getelementptr inbounds nuw i8, ptr %0, i64 20
  %3 = load i32, ptr %2, align 4
  %4 = and i32 %3, 3
  %5 = icmp eq i32 %4, 2
  %6 = trunc i32 %3 to i16
  %7 = shl i16 %6, 4
  %.sroa.2.0.insert.shift = and i16 %7, 256
  %.sroa.0.0.insert.ext = zext i1 %5 to i16
  %.sroa.0.0.insert.insert = or disjoint i16 %.sroa.2.0.insert.shift, %.sroa.0.0.insert.ext
  ret i16 %.sroa.0.0.insert.insert
}